; Function Attrs: nounwind uwtable
define dso_local void @lua_pushvalue(ptr noundef %0, i32 noundef %1) local_unnamed_addr #1 {
  %3 = getelementptr inbounds nuw i8, ptr %0, i64 40
  %4 = load ptr, ptr %3, align 8, !tbaa !14
  %5 = icmp sgt i32 %1, 0
  br i1 %5, label %6, label %18

6:                                                ; preds = %2
  %7 = getelementptr inbounds nuw i8, ptr %0, i64 32
  %8 = load ptr, ptr %7, align 8, !tbaa !15
  %9 = zext nneg i32 %1 to i64
  %10 = getelementptr %union.TValue, ptr %8, i64 %9
  %11 = getelementptr i8, ptr %10, i64 -8
  %12 = icmp ult ptr %11, %4
  br i1 %12, label %index2adr.exit, label %13

13:                                               ; preds = %6
  %14 = getelementptr inbounds nuw i8, ptr %0, i64 16
  %15 = load i64, ptr %14, align 8, !tbaa !21
  %16 = inttoptr i64 %15 to ptr
  %17 = getelementptr inbounds nuw i8, ptr %16, i64 248
  br label %index2adr.exit

18:                                               ; preds = %2
  %19 = icmp sgt i32 %1, -10000
  br i1 %19, label %20, label %23

20:                                               ; preds = %18
  %21 = sext i32 %1 to i64
  %22 = getelementptr inbounds %union.TValue, ptr %4, i64 %21
  br label %index2adr.exit

23:                                               ; preds = %18
  switch i32 %1, label %37 [
    i32 -10002, label %24
    i32 -10000, label %32
  ]

24:                                               ; preds = %23
  %25 = getelementptr inbounds nuw i8, ptr %0, i64 16
  %26 = load i64, ptr %25, align 8, !tbaa !21
  %27 = inttoptr i64 %26 to ptr
  %28 = getelementptr inbounds nuw i8, ptr %27, i64 232
  %29 = getelementptr inbounds nuw i8, ptr %0, i64 72
  %30 = load i64, ptr %29, align 8, !tbaa !24
  %31 = or i64 %30, -1688849860263936
  store i64 %31, ptr %28, align 8, !tbaa !17
  br label %index2adr.exit

32:                                               ; preds = %23
  %33 = getelementptr inbounds nuw i8, ptr %0, i64 16
  %34 = load i64, ptr %33, align 8, !tbaa !21
  %35 = inttoptr i64 %34 to ptr
  %36 = getelementptr inbounds nuw i8, ptr %35, i64 272
  br label %index2adr.exit

37:                                               ; preds = %23
  %38 = getelementptr inbounds nuw i8, ptr %0, i64 32
  %39 = load ptr, ptr %38, align 8, !tbaa !15
  %40 = getelementptr inbounds i8, ptr %39, i64 -16
  %41 = load i64, ptr %40, align 8, !tbaa !17
  %42 = and i64 %41, 140737488355327
  %43 = inttoptr i64 %42 to ptr
  %44 = icmp eq i32 %1, -10001
  br i1 %44, label %45, label %53

45:                                               ; preds = %37
  %46 = getelementptr inbounds nuw i8, ptr %0, i64 16
  %47 = load i64, ptr %46, align 8, !tbaa !21
  %48 = inttoptr i64 %47 to ptr
  %49 = getelementptr inbounds nuw i8, ptr %48, i64 232
  %50 = getelementptr inbounds nuw i8, ptr %43, i64 16
  %51 = load i64, ptr %50, align 8, !tbaa !17
  %52 = or i64 %51, -1688849860263936
  store i64 %52, ptr %49, align 8, !tbaa !17
  br label %index2adr.exit

53:                                               ; preds = %37
  %54 = sub nuw nsw i32 -10002, %1
  %55 = getelementptr inbounds nuw i8, ptr %43, i64 11
  %56 = load i8, ptr %55, align 1, !tbaa !17
  %57 = zext i8 %56 to i32
  %.not.i = icmp samesign ugt i32 %54, %57
  br i1 %.not.i, label %63, label %58

58:                                               ; preds = %53
  %59 = getelementptr inbounds nuw i8, ptr %43, i64 48
  %60 = sub nsw i32 -10003, %1
  %61 = sext i32 %60 to i64
  %62 = getelementptr inbounds [1 x %union.TValue], ptr %59, i64 0, i64 %61
  br label %index2adr.exit

63:                                               ; preds = %53
  %64 = getelementptr inbounds nuw i8, ptr %0, i64 16
  %65 = load i64, ptr %64, align 8, !tbaa !21
  %66 = inttoptr i64 %65 to ptr
  %67 = getelementptr inbounds nuw i8, ptr %66, i64 248
  br label %index2adr.exit

index2adr.exit:                                   ; preds = %6, %13, %20, %24, %32, %45, %58, %63
  %.0.i = phi ptr [ %22, %20 ], [ %28, %24 ], [ %36, %32 ], [ %17, %13 ], [ %11, %6 ], [ %49, %45 ], [ %62, %58 ], [ %67, %63 ]
  %68 = load i64, ptr %.0.i, align 8, !tbaa !17
  store i64 %68, ptr %4, align 8, !tbaa !17
  %69 = load ptr, ptr %3, align 8, !tbaa !14
  %70 = getelementptr inbounds nuw i8, ptr %69, i64 8
  store ptr %70, ptr %3, align 8, !tbaa !14
  %71 = getelementptr inbounds nuw i8, ptr %0, i64 48
  %72 = load i64, ptr %71, align 8, !tbaa !16
  %73 = inttoptr i64 %72 to ptr
  %.not = icmp ult ptr %70, %73
  br i1 %.not, label %75, label %74

74:                                               ; preds = %index2adr.exit
  tail call void @lj_state_growstack1(ptr noundef nonnull %0) #13
  br label %75

75:                                               ; preds = %74, %index2adr.exit
  ret void
}